target datalayout = "e-m:e-p270:32:32-p271:32:32-p272:64:64-i64:64-i128:128-f80:128-n8:16:32:64-S128"
target triple = "x86_64-pc-linux-gnu"

%"class.Imf_3_4::TypedAttribute" = type <{ %"class.Imf_3_4::Attribute", i32, [4 x i8] }>
%"class.Imf_3_4::Attribute" = type { ptr }

; Function Attrs: inlinehint mustprogress uwtable
define linkonce_odr hidden void @_ZN7Imf_3_48StreamIO10writeCharsERNS_7OStreamEPKci(ptr noundef nonnull align 8 dereferenceable(40) %0, ptr noundef %1, i32 noundef %2) #12 comdat align 2 {
  %4 = alloca ptr, align 8
  %5 = alloca ptr, align 8
  %6 = alloca i32, align 4
  store ptr %0, ptr %4, align 8, !tbaa !18
  store ptr %1, ptr %5, align 8, !tbaa !25
  store i32 %2, ptr %6, align 4, !tbaa !20
  %7 = load ptr, ptr %4, align 8, !tbaa !18
  %8 = load ptr, ptr %5, align 8, !tbaa !25
  %9 = load i32, ptr %6, align 4, !tbaa !20
  %10 = load ptr, ptr %7, align 8, !tbaa !9
  %11 = getelementptr inbounds ptr, ptr %10, i64 2
  %12 = load ptr, ptr %11, align 8
  call void %12(ptr noundef nonnull align 8 dereferenceable(40) %7, ptr noundef %8, i32 noundef %9)
  ret void
}

; Function Attrs: inlinehint mustprogress uwtable
define linkonce_odr hidden void @_ZN7Imf_3_43Xdr18writeUnsignedCharsINS_8StreamIOENS_7OStreamEEEvRT0_PKhi(ptr noundef nonnull align 8 dereferenceable(40) %0, ptr noundef %1, i32 noundef %2) #12 comdat {
  %4 = alloca ptr, align 8
  %5 = alloca ptr, align 8
  %6 = alloca i32, align 4
  store ptr %0, ptr %4, align 8, !tbaa !18
  store ptr %1, ptr %5, align 8, !tbaa !25
  store i32 %2, ptr %6, align 4, !tbaa !20
  %7 = load ptr, ptr %4, align 8, !tbaa !18
  %8 = load ptr, ptr %5, align 8, !tbaa !25
  %9 = load i32, ptr %6, align 4, !tbaa !20
  call void @_ZN7Imf_3_48StreamIO10writeCharsERNS_7OStreamEPKci(ptr noundef nonnull align 8 dereferenceable(40) %7, ptr noundef %8, i32 noundef %9)
  ret void
}

; Function Attrs: inlinehint mustprogress uwtable
define linkonce_odr hidden void @_ZN7Imf_3_43Xdr5writeINS_8StreamIOENS_7OStreamEEEvRT0_h(ptr noundef nonnull align 8 dereferenceable(40) %0, i8 noundef zeroext %1) #12 comdat {
  %3 = alloca ptr, align 8
  %4 = alloca i8, align 1
  store ptr %0, ptr %3, align 8, !tbaa !18
  store i8 %1, ptr %4, align 1, !tbaa !22
  %5 = load ptr, ptr %3, align 8, !tbaa !18
  call void @_ZN7Imf_3_43Xdr18writeUnsignedCharsINS_8StreamIOENS_7OStreamEEEvRT0_PKhi(ptr noundef nonnull align 8 dereferenceable(40) %5, ptr noundef %4, i32 noundef 1)
  ret void
}

; Function Attrs: mustprogress uwtable
define void @_ZNK7Imf_3_414TypedAttributeINS_14DeepImageStateEE12writeValueToERNS_7OStreamEi(ptr noundef nonnull align 8 dereferenceable(12) %0, ptr noundef nonnull align 8 dereferenceable(40) %1, i32 noundef %2) unnamed_addr #4 align 2 {
  %4 = alloca ptr, align 8
  %5 = alloca ptr, align 8
  %6 = alloca i32, align 4
  %7 = alloca i8, align 1
  store ptr %0, ptr %4, align 8, !tbaa !3
  store ptr %1, ptr %5, align 8, !tbaa !18
  store i32 %2, ptr %6, align 4, !tbaa !20
  %8 = load ptr, ptr %4, align 8
  call void @llvm.lifetime.start.p0(i64 1, ptr %7) #3
  %9 = getelementptr inbounds nuw %"class.Imf_3_4::TypedAttribute", ptr %8, i32 0, i32 1
  %10 = load i32, ptr %9, align 8, !tbaa !13
  %11 = trunc i32 %10 to i8
  store i8 %11, ptr %7, align 1, !tbaa !22
  %12 = load ptr, ptr %5, align 8, !tbaa !18
  %13 = load i8, ptr %7, align 1, !tbaa !22
  call void @_ZN7Imf_3_43Xdr5writeINS_8StreamIOENS_7OStreamEEEvRT0_h(ptr noundef nonnull align 8 dereferenceable(40) %12, i8 noundef zeroext %13)
  call void @llvm.lifetime.end.p0(i64 1, ptr %7) #3
  ret void
}